target datalayout = "e-m:e-p270:32:32-p271:32:32-p272:64:64-i64:64-i128:128-f80:128-n8:16:32:64-S128"
target triple = "x86_64-pc-linux-gnu"

%struct.bignum_st = type { ptr, i32, i32, i32, i32 }

; Function Attrs: nounwind uwtable
define hidden i32 @BN_sqr(ptr noundef %0, ptr noundef %1, ptr noundef %2) #0 {
  %4 = alloca i32, align 4
  %5 = alloca ptr, align 8
  %6 = alloca ptr, align 8
  %7 = alloca ptr, align 8
  %8 = alloca i32, align 4
  %9 = alloca i32, align 4
  %10 = alloca i32, align 4
  %11 = alloca ptr, align 8
  %12 = alloca ptr, align 8
  %13 = alloca i32, align 4
  %14 = alloca [32 x i64], align 16
  %15 = alloca i32, align 4
  %16 = alloca i32, align 4
  store ptr %0, ptr %5, align 8, !tbaa !6
  store ptr %1, ptr %6, align 8, !tbaa !6
  store ptr %2, ptr %7, align 8, !tbaa !11
  call void @llvm.lifetime.start.p0(i64 4, ptr %8) #4
  call void @llvm.lifetime.start.p0(i64 4, ptr %9) #4
  call void @llvm.lifetime.start.p0(i64 4, ptr %10) #4
  store i32 0, ptr %10, align 4, !tbaa !13
  call void @llvm.lifetime.start.p0(i64 8, ptr %11) #4
  call void @llvm.lifetime.start.p0(i64 8, ptr %12) #4
  %17 = load ptr, ptr %6, align 8, !tbaa !6
  %18 = getelementptr inbounds nuw %struct.bignum_st, ptr %17, i32 0, i32 1
  %19 = load i32, ptr %18, align 8, !tbaa !15
  store i32 %19, ptr %9, align 4, !tbaa !13
  %20 = load i32, ptr %9, align 4, !tbaa !13
  %21 = icmp sle i32 %20, 0
  br i1 %21, label %22, label %27

22:                                               ; preds = %3
  %23 = load ptr, ptr %5, align 8, !tbaa !6
  %24 = getelementptr inbounds nuw %struct.bignum_st, ptr %23, i32 0, i32 1
  store i32 0, ptr %24, align 8, !tbaa !15
  %25 = load ptr, ptr %5, align 8, !tbaa !6
  %26 = getelementptr inbounds nuw %struct.bignum_st, ptr %25, i32 0, i32 3
  store i32 0, ptr %26, align 8, !tbaa !18
  store i32 1, ptr %4, align 4
  store i32 1, ptr %13, align 4
  br label %188

27:                                               ; preds = %3
  %28 = load ptr, ptr %7, align 8, !tbaa !11
  call void @BN_CTX_start(ptr noundef %28)
  %29 = load ptr, ptr %6, align 8, !tbaa !6
  %30 = load ptr, ptr %5, align 8, !tbaa !6
  %31 = icmp ne ptr %29, %30
  br i1 %31, label %32, label %34

32:                                               ; preds = %27
  %33 = load ptr, ptr %5, align 8, !tbaa !6
  br label %37

34:                                               ; preds = %27
  %35 = load ptr, ptr %7, align 8, !tbaa !11
  %36 = call ptr @BN_CTX_get(ptr noundef %35)
  br label %37

37:                                               ; preds = %34, %32
  %38 = phi ptr [ %33, %32 ], [ %36, %34 ]
  store ptr %38, ptr %12, align 8, !tbaa !6
  %39 = load ptr, ptr %7, align 8, !tbaa !11
  %40 = call ptr @BN_CTX_get(ptr noundef %39)
  store ptr %40, ptr %11, align 8, !tbaa !6
  %41 = load ptr, ptr %12, align 8, !tbaa !6
  %42 = icmp ne ptr %41, null
  br i1 %42, label %43, label %46

43:                                               ; preds = %37
  %44 = load ptr, ptr %11, align 8, !tbaa !6
  %45 = icmp ne ptr %44, null
  br i1 %45, label %47, label %46

46:                                               ; preds = %43, %37
  br label %185

47:                                               ; preds = %43
  %48 = load i32, ptr %9, align 4, !tbaa !13
  %49 = mul nsw i32 2, %48
  store i32 %49, ptr %8, align 4, !tbaa !13
  %50 = load ptr, ptr %12, align 8, !tbaa !6
  %51 = load i32, ptr %8, align 4, !tbaa !13
  %52 = sext i32 %51 to i64
  %53 = call ptr @bn_wexpand(ptr noundef %50, i64 noundef %52)
  %54 = icmp eq ptr %53, null
  br i1 %54, label %55, label %56

55:                                               ; preds = %47
  br label %185

56:                                               ; preds = %47
  %57 = load i32, ptr %9, align 4, !tbaa !13
  %58 = icmp eq i32 %57, 4
  br i1 %58, label %59, label %66

59:                                               ; preds = %56
  %60 = load ptr, ptr %12, align 8, !tbaa !6
  %61 = getelementptr inbounds nuw %struct.bignum_st, ptr %60, i32 0, i32 0
  %62 = load ptr, ptr %61, align 8, !tbaa !19
  %63 = load ptr, ptr %6, align 8, !tbaa !6
  %64 = getelementptr inbounds nuw %struct.bignum_st, ptr %63, i32 0, i32 0
  %65 = load ptr, ptr %64, align 8, !tbaa !19
  call void @bn_sqr_comba4(ptr noundef %62, ptr noundef %65)
  br label %144

66:                                               ; preds = %56
  %67 = load i32, ptr %9, align 4, !tbaa !13
  %68 = icmp eq i32 %67, 8
  br i1 %68, label %69, label %76

69:                                               ; preds = %66
  %70 = load ptr, ptr %12, align 8, !tbaa !6
  %71 = getelementptr inbounds nuw %struct.bignum_st, ptr %70, i32 0, i32 0
  %72 = load ptr, ptr %71, align 8, !tbaa !19
  %73 = load ptr, ptr %6, align 8, !tbaa !6
  %74 = getelementptr inbounds nuw %struct.bignum_st, ptr %73, i32 0, i32 0
  %75 = load ptr, ptr %74, align 8, !tbaa !19
  call void @bn_sqr_comba8(ptr noundef %72, ptr noundef %75)
  br label %143

76:                                               ; preds = %66
  %77 = load i32, ptr %9, align 4, !tbaa !13
  %78 = icmp slt i32 %77, 16
  br i1 %78, label %79, label %88

79:                                               ; preds = %76
  call void @llvm.lifetime.start.p0(i64 256, ptr %14) #4
  %80 = load ptr, ptr %12, align 8, !tbaa !6
  %81 = getelementptr inbounds nuw %struct.bignum_st, ptr %80, i32 0, i32 0
  %82 = load ptr, ptr %81, align 8, !tbaa !19
  %83 = load ptr, ptr %6, align 8, !tbaa !6
  %84 = getelementptr inbounds nuw %struct.bignum_st, ptr %83, i32 0, i32 0
  %85 = load ptr, ptr %84, align 8, !tbaa !19
  %86 = load i32, ptr %9, align 4, !tbaa !13
  %87 = getelementptr inbounds [32 x i64], ptr %14, i64 0, i64 0
  call void @bn_sqr_normal(ptr noundef %82, ptr noundef %85, i32 noundef %86, ptr noundef %87)
  call void @llvm.lifetime.end.p0(i64 256, ptr %14) #4
  br label %142

88:                                               ; preds = %76
  call void @llvm.lifetime.start.p0(i64 4, ptr %15) #4
  call void @llvm.lifetime.start.p0(i64 4, ptr %16) #4
  %89 = load i32, ptr %9, align 4, !tbaa !13
  %90 = sext i32 %89 to i64
  %91 = call i32 @BN_num_bits_word(i64 noundef %90)
  store i32 %91, ptr %15, align 4, !tbaa !13
  %92 = load i32, ptr %15, align 4, !tbaa !13
  %93 = sub nsw i32 %92, 1
  %94 = shl i32 1, %93
  store i32 %94, ptr %15, align 4, !tbaa !13
  %95 = load i32, ptr %15, align 4, !tbaa !13
  %96 = load i32, ptr %15, align 4, !tbaa !13
  %97 = add nsw i32 %95, %96
  store i32 %97, ptr %16, align 4, !tbaa !13
  %98 = load i32, ptr %9, align 4, !tbaa !13
  %99 = load i32, ptr %15, align 4, !tbaa !13
  %100 = icmp eq i32 %98, %99
  br i1 %100, label %101, label %120

101:                                              ; preds = %88
  %102 = load ptr, ptr %11, align 8, !tbaa !6
  %103 = load i32, ptr %16, align 4, !tbaa !13
  %104 = mul nsw i32 %103, 2
  %105 = sext i32 %104 to i64
  %106 = call ptr @bn_wexpand(ptr noundef %102, i64 noundef %105)
  %107 = icmp eq ptr %106, null
  br i1 %107, label %108, label %109

108:                                              ; preds = %101
  store i32 2, ptr %13, align 4
  br label %139

109:                                              ; preds = %101
  %110 = load ptr, ptr %12, align 8, !tbaa !6
  %111 = getelementptr inbounds nuw %struct.bignum_st, ptr %110, i32 0, i32 0
  %112 = load ptr, ptr %111, align 8, !tbaa !19
  %113 = load ptr, ptr %6, align 8, !tbaa !6
  %114 = getelementptr inbounds nuw %struct.bignum_st, ptr %113, i32 0, i32 0
  %115 = load ptr, ptr %114, align 8, !tbaa !19
  %116 = load i32, ptr %9, align 4, !tbaa !13
  %117 = load ptr, ptr %11, align 8, !tbaa !6
  %118 = getelementptr inbounds nuw %struct.bignum_st, ptr %117, i32 0, i32 0
  %119 = load ptr, ptr %118, align 8, !tbaa !19
  call void @bn_sqr_recursive(ptr noundef %112, ptr noundef %115, i32 noundef %116, ptr noundef %119)
  br label %138

120:                                              ; preds = %88
  %121 = load ptr, ptr %11, align 8, !tbaa !6
  %122 = load i32, ptr %8, align 4, !tbaa !13
  %123 = sext i32 %122 to i64
  %124 = call ptr @bn_wexpand(ptr noundef %121, i64 noundef %123)
  %125 = icmp eq ptr %124, null
  br i1 %125, label %126, label %127

126:                                              ; preds = %120
  store i32 2, ptr %13, align 4
  br label %139

127:                                              ; preds = %120
  %128 = load ptr, ptr %12, align 8, !tbaa !6
  %129 = getelementptr inbounds nuw %struct.bignum_st, ptr %128, i32 0, i32 0
  %130 = load ptr, ptr %129, align 8, !tbaa !19
  %131 = load ptr, ptr %6, align 8, !tbaa !6
  %132 = getelementptr inbounds nuw %struct.bignum_st, ptr %131, i32 0, i32 0
  %133 = load ptr, ptr %132, align 8, !tbaa !19
  %134 = load i32, ptr %9, align 4, !tbaa !13
  %135 = load ptr, ptr %11, align 8, !tbaa !6
  %136 = getelementptr inbounds nuw %struct.bignum_st, ptr %135, i32 0, i32 0
  %137 = load ptr, ptr %136, align 8, !tbaa !19
  call void @bn_sqr_normal(ptr noundef %130, ptr noundef %133, i32 noundef %134, ptr noundef %137)
  br label %138

138:                                              ; preds = %127, %109
  store i32 0, ptr %13, align 4
  br label %139

139:                                              ; preds = %126, %108, %138
  call void @llvm.lifetime.end.p0(i64 4, ptr %16) #4
  call void @llvm.lifetime.end.p0(i64 4, ptr %15) #4
  %140 = load i32, ptr %13, align 4
  switch i32 %140, label %188 [
    i32 0, label %141
    i32 2, label %185
  ]

141:                                              ; preds = %139
  br label %142

142:                                              ; preds = %141, %79
  br label %143

143:                                              ; preds = %142, %69
  br label %144

144:                                              ; preds = %143, %59
  %145 = load ptr, ptr %12, align 8, !tbaa !6
  %146 = getelementptr inbounds nuw %struct.bignum_st, ptr %145, i32 0, i32 3
  store i32 0, ptr %146, align 8, !tbaa !18
  %147 = load ptr, ptr %6, align 8, !tbaa !6
  %148 = getelementptr inbounds nuw %struct.bignum_st, ptr %147, i32 0, i32 0
  %149 = load ptr, ptr %148, align 8, !tbaa !19
  %150 = load i32, ptr %9, align 4, !tbaa !13
  %151 = sub nsw i32 %150, 1
  %152 = sext i32 %151 to i64
  %153 = getelementptr inbounds i64, ptr %149, i64 %152
  %154 = load i64, ptr %153, align 8, !tbaa !21
  %155 = load ptr, ptr %6, align 8, !tbaa !6
  %156 = getelementptr inbounds nuw %struct.bignum_st, ptr %155, i32 0, i32 0
  %157 = load ptr, ptr %156, align 8, !tbaa !19
  %158 = load i32, ptr %9, align 4, !tbaa !13
  %159 = sub nsw i32 %158, 1
  %160 = sext i32 %159 to i64
  %161 = getelementptr inbounds i64, ptr %157, i64 %160
  %162 = load i64, ptr %161, align 8, !tbaa !21
  %163 = and i64 %162, 4294967295
  %164 = icmp eq i64 %154, %163
  br i1 %164, label %165, label %170

165:                                              ; preds = %144
  %166 = load i32, ptr %8, align 4, !tbaa !13
  %167 = sub nsw i32 %166, 1
  %168 = load ptr, ptr %12, align 8, !tbaa !6
  %169 = getelementptr inbounds nuw %struct.bignum_st, ptr %168, i32 0, i32 1
  store i32 %167, ptr %169, align 8, !tbaa !15
  br label %174

170:                                              ; preds = %144
  %171 = load i32, ptr %8, align 4, !tbaa !13
  %172 = load ptr, ptr %12, align 8, !tbaa !6
  %173 = getelementptr inbounds nuw %struct.bignum_st, ptr %172, i32 0, i32 1
  store i32 %171, ptr %173, align 8, !tbaa !15
  br label %174

174:                                              ; preds = %170, %165
  %175 = load ptr, ptr %12, align 8, !tbaa !6
  %176 = load ptr, ptr %5, align 8, !tbaa !6
  %177 = icmp ne ptr %175, %176
  br i1 %177, label %178, label %184

178:                                              ; preds = %174
  %179 = load ptr, ptr %5, align 8, !tbaa !6
  %180 = load ptr, ptr %12, align 8, !tbaa !6
  %181 = call ptr @BN_copy(ptr noundef %179, ptr noundef %180)
  %182 = icmp ne ptr %181, null
  br i1 %182, label %184, label %183

183:                                              ; preds = %178
  br label %185

184:                                              ; preds = %178, %174
  store i32 1, ptr %10, align 4, !tbaa !13
  br label %185

185:                                              ; preds = %184, %139, %183, %55, %46
  %186 = load ptr, ptr %7, align 8, !tbaa !11
  call void @BN_CTX_end(ptr noundef %186)
  %187 = load i32, ptr %10, align 4, !tbaa !13
  store i32 %187, ptr %4, align 4
  store i32 1, ptr %13, align 4
  br label %188

188:                                              ; preds = %185, %139, %22
  call void @llvm.lifetime.end.p0(i64 8, ptr %12) #4
  call void @llvm.lifetime.end.p0(i64 8, ptr %11) #4
  call void @llvm.lifetime.end.p0(i64 4, ptr %10) #4
  call void @llvm.lifetime.end.p0(i64 4, ptr %9) #4
  call void @llvm.lifetime.end.p0(i64 4, ptr %8) #4
  %189 = load i32, ptr %4, align 4
  ret i32 %189
}