; Function Attrs: nounwind uwtable
define hidden range(i32 0, 2) i32 @BN_sqr(ptr noundef %0, ptr noundef readonly captures(address) %1, ptr noundef %2) local_unnamed_addr #0 {
  %4 = alloca [32 x i64], align 16
  %5 = getelementptr inbounds nuw i8, ptr %1, i64 8
  %6 = load i32, ptr %5, align 8, !tbaa !6
  %7 = icmp slt i32 %6, 1
  br i1 %7, label %8, label %11

8:                                                ; preds = %3
  %9 = getelementptr inbounds nuw i8, ptr %0, i64 8
  store i32 0, ptr %9, align 8, !tbaa !6
  %10 = getelementptr inbounds nuw i8, ptr %0, i64 16
  store i32 0, ptr %10, align 8, !tbaa !13
  br label %71

11:                                               ; preds = %3
  tail call void @BN_CTX_start(ptr noundef %2) #5
  %.not = icmp eq ptr %1, %0
  br i1 %.not, label %12, label %14

12:                                               ; preds = %11
  %13 = tail call ptr @BN_CTX_get(ptr noundef %2) #5
  br label %14

14:                                               ; preds = %11, %12
  %15 = phi ptr [ %13, %12 ], [ %0, %11 ]
  %16 = tail call ptr @BN_CTX_get(ptr noundef %2) #5
  %17 = icmp ne ptr %15, null
  %18 = icmp ne ptr %16, null
  %or.cond = select i1 %17, i1 %18, i1 false
  br i1 %or.cond, label %19, label %70

19:                                               ; preds = %14
  %20 = shl nuw nsw i32 %6, 1
  %21 = zext nneg i32 %20 to i64
  %22 = tail call ptr @bn_wexpand(ptr noundef nonnull %15, i64 noundef %21) #5
  %23 = icmp eq ptr %22, null
  br i1 %23, label %70, label %24

24:                                               ; preds = %19
  switch i32 %6, label %31 [
    i32 4, label %25
    i32 8, label %28
  ]

25:                                               ; preds = %24
  %26 = load ptr, ptr %15, align 8, !tbaa !14
  %27 = load ptr, ptr %1, align 8, !tbaa !14
  tail call void @bn_sqr_comba4(ptr noundef %26, ptr noundef %27) #5
  br label %.thread

28:                                               ; preds = %24
  %29 = load ptr, ptr %15, align 8, !tbaa !14
  %30 = load ptr, ptr %1, align 8, !tbaa !14
  tail call void @bn_sqr_comba8(ptr noundef %29, ptr noundef %30) #5
  br label %.thread

31:                                               ; preds = %24
  %32 = icmp samesign ult i32 %6, 16
  br i1 %32, label %33, label %36

33:                                               ; preds = %31
  call void @llvm.lifetime.start.p0(i64 256, ptr nonnull %4) #5
  %34 = load ptr, ptr %15, align 8, !tbaa !14
  %35 = load ptr, ptr %1, align 8, !tbaa !14
  call fastcc void @bn_sqr_normal(ptr noundef %34, ptr noundef %35, i32 noundef %6, ptr noundef nonnull %4)
  call void @llvm.lifetime.end.p0(i64 256, ptr nonnull %4) #5
  br label %.thread

36:                                               ; preds = %31
  %37 = zext nneg i32 %6 to i64
  %38 = tail call i32 @BN_num_bits_word(i64 noundef %37) #5
  %39 = add nsw i32 %38, -1
  %40 = shl nuw i32 1, %39
  %41 = icmp eq i32 %6, %40
  br i1 %41, label %42, label %51

42:                                               ; preds = %36
  %43 = shl i32 4, %39
  %44 = sext i32 %43 to i64
  %45 = tail call ptr @bn_wexpand(ptr noundef nonnull %16, i64 noundef %44) #5
  %46 = icmp eq ptr %45, null
  br i1 %46, label %70, label %47

47:                                               ; preds = %42
  %48 = load ptr, ptr %15, align 8, !tbaa !14
  %49 = load ptr, ptr %1, align 8, !tbaa !14
  %50 = load ptr, ptr %16, align 8, !tbaa !14
  tail call fastcc void @bn_sqr_recursive(ptr noundef %48, ptr noundef %49, i32 noundef %6, ptr noundef %50)
  br label %.thread

51:                                               ; preds = %36
  %52 = tail call ptr @bn_wexpand(ptr noundef nonnull %16, i64 noundef %21) #5
  %53 = icmp eq ptr %52, null
  br i1 %53, label %70, label %54

54:                                               ; preds = %51
  %55 = load ptr, ptr %15, align 8, !tbaa !14
  %56 = load ptr, ptr %1, align 8, !tbaa !14
  %57 = load ptr, ptr %16, align 8, !tbaa !14
  tail call fastcc void @bn_sqr_normal(ptr noundef %55, ptr noundef %56, i32 noundef %6, ptr noundef %57)
  br label %.thread

.thread:                                          ; preds = %47, %54, %28, %33, %25
  %58 = getelementptr inbounds nuw i8, ptr %15, i64 16
  store i32 0, ptr %58, align 8, !tbaa !13
  %59 = load ptr, ptr %1, align 8, !tbaa !14
  %60 = zext nneg i32 %6 to i64
  %61 = getelementptr i64, ptr %59, i64 %60
  %62 = getelementptr i8, ptr %61, i64 -8
  %63 = load i64, ptr %62, align 8, !tbaa !15
  %64 = icmp ult i64 %63, 4294967296
  %65 = sext i1 %64 to i32
  %spec.select = add nsw i32 %20, %65
  %66 = getelementptr inbounds nuw i8, ptr %15, i64 8
  store i32 %spec.select, ptr %66, align 8, !tbaa !6
  %.not66 = icmp eq ptr %15, %0
  br i1 %.not66, label %69, label %67

67:                                               ; preds = %.thread
  %68 = call ptr @BN_copy(ptr noundef %0, ptr noundef nonnull %15) #5
  %.not67 = icmp eq ptr %68, null
  br i1 %.not67, label %70, label %69

69:                                               ; preds = %67, %.thread
  br label %70

70:                                               ; preds = %42, %51, %67, %19, %14, %69
  %.060 = phi i32 [ 0, %19 ], [ 1, %69 ], [ 0, %67 ], [ 0, %14 ], [ 0, %51 ], [ 0, %42 ]
  call void @BN_CTX_end(ptr noundef %2) #5
  br label %71

71:                                               ; preds = %70, %8
  %.0 = phi i32 [ 1, %8 ], [ %.060, %70 ]
  ret i32 %.0
}